target datalayout = "e-m:e-p270:32:32-p271:32:32-p272:64:64-i64:64-i128:128-f80:128-n8:16:32:64-S128"
target triple = "x86_64-pc-linux-gnu"

%class.Register = type { i32 }
%class.XMMRegister = type { i32 }
%class.MachNode = type { %class.Node.base, i8, i16, ptr }
%class.Node.base = type <{ ptr, ptr, ptr, i32, i32, i32, i32, i32, i32, i32 }>
%class.MachTypeNode = type { %class.MachNode, ptr }
%class.reductionBNode = type { %class.MachTypeNode, [5 x ptr] }

@_ZL5noreg = internal constant %class.Register { i32 -1 }, align 4
@_ZL6xnoreg = internal constant %class.XMMRegister { i32 -1 }, align 4

; Function Attrs: mustprogress nounwind uwtable
define linkonce_odr hidden void @_ZN11XMMRegisterC2Eib(ptr noundef nonnull align 4 dereferenceable(4) %0, i32 noundef %1, i1 noundef zeroext %2) unnamed_addr #1 comdat align 2 {
  %4 = alloca ptr, align 8
  %5 = alloca i32, align 4
  %6 = alloca i8, align 1
  store ptr %0, ptr %4, align 8
  store i32 %1, ptr %5, align 4
  %7 = zext i1 %2 to i8
  store i8 %7, ptr %6, align 1
  %8 = load ptr, ptr %4, align 8
  %9 = getelementptr inbounds %class.XMMRegister, ptr %8, i32 0, i32 0
  %10 = load i32, ptr %5, align 4
  store i32 %10, ptr %9, align 4
  ret void
}

; Function Attrs: mustprogress nounwind uwtable
define linkonce_odr hidden void @_ZN8RegisterC2Eib(ptr noundef nonnull align 4 dereferenceable(4) %0, i32 noundef %1, i1 noundef zeroext %2) unnamed_addr #1 comdat align 2 {
  %4 = alloca ptr, align 8
  %5 = alloca i32, align 4
  %6 = alloca i8, align 1
  store ptr %0, ptr %4, align 8
  store i32 %1, ptr %5, align 4
  %7 = zext i1 %2 to i8
  store i8 %7, ptr %6, align 1
  %8 = load ptr, ptr %4, align 8
  %9 = getelementptr inbounds %class.Register, ptr %8, i32 0, i32 0
  %10 = load i32, ptr %5, align 4
  store i32 %10, ptr %9, align 4
  ret void
}

; Function Attrs: mustprogress nounwind uwtable
define linkonce_odr hidden i32 @_Z14as_XMMRegisteri(i32 noundef %0) #1 comdat {
  %2 = alloca %class.XMMRegister, align 4
  %3 = alloca i32, align 4
  store i32 %0, ptr %3, align 4
  %4 = load i32, ptr %3, align 4
  %5 = icmp sle i32 0, %4
  br i1 %5, label %6, label %11

6:                                                ; preds = %1
  %7 = load i32, ptr %3, align 4
  %8 = icmp slt i32 %7, 32
  br i1 %8, label %9, label %11

9:                                                ; preds = %6
  %10 = load i32, ptr %3, align 4
  call void @_ZN11XMMRegisterC2Eib(ptr noundef nonnull align 4 dereferenceable(4) %2, i32 noundef %10, i1 noundef zeroext false)
  br label %12

11:                                               ; preds = %6, %1
  call void @llvm.memcpy.p0.p0.i64(ptr align 4 %2, ptr align 4 @_ZL6xnoreg, i64 4, i1 false)
  br label %12

12:                                               ; preds = %11, %9
  %13 = getelementptr inbounds %class.XMMRegister, ptr %2, i32 0, i32 0
  %14 = load i32, ptr %13, align 4
  ret i32 %14
}

; Function Attrs: mustprogress nounwind uwtable
define linkonce_odr hidden i32 @_Z11as_Registeri(i32 noundef %0) #1 comdat {
  %2 = alloca %class.Register, align 4
  %3 = alloca i32, align 4
  store i32 %0, ptr %3, align 4
  %4 = load i32, ptr %3, align 4
  %5 = icmp sle i32 0, %4
  br i1 %5, label %6, label %11

6:                                                ; preds = %1
  %7 = load i32, ptr %3, align 4
  %8 = icmp slt i32 %7, 32
  br i1 %8, label %9, label %11

9:                                                ; preds = %6
  %10 = load i32, ptr %3, align 4
  call void @_ZN8RegisterC2Eib(ptr noundef nonnull align 4 dereferenceable(4) %2, i32 noundef %10, i1 noundef zeroext false)
  br label %12

11:                                               ; preds = %6, %1
  call void @llvm.memcpy.p0.p0.i64(ptr align 4 %2, ptr align 4 @_ZL5noreg, i64 4, i1 false)
  br label %12

12:                                               ; preds = %11, %9
  %13 = getelementptr inbounds %class.Register, ptr %2, i32 0, i32 0
  %14 = load i32, ptr %13, align 4
  ret i32 %14
}

; Function Attrs: mustprogress nounwind uwtable
define linkonce_odr hidden i32 @_ZNK8MachOper14as_XMMRegisterEP13PhaseRegAllocPK4Nodei(ptr noundef nonnull align 8 dereferenceable(8) %0, ptr noundef %1, ptr noundef %2, i32 noundef %3) #1 comdat align 2 {
  %5 = alloca %class.XMMRegister, align 4
  %6 = alloca ptr, align 8
  %7 = alloca ptr, align 8
  %8 = alloca ptr, align 8
  %9 = alloca i32, align 4
  store ptr %0, ptr %6, align 8
  store ptr %1, ptr %7, align 8
  store ptr %2, ptr %8, align 8
  store i32 %3, ptr %9, align 4
  %10 = load ptr, ptr %6, align 8
  %11 = load ptr, ptr %7, align 8
  %12 = load ptr, ptr %8, align 8
  %13 = load i32, ptr %9, align 4
  %14 = load ptr, ptr %10, align 8
  %15 = getelementptr inbounds ptr, ptr %14, i64 5
  %16 = load ptr, ptr %15, align 8
  %17 = call noundef i32 %16(ptr noundef nonnull align 8 dereferenceable(8) %10, ptr noundef %11, ptr noundef %12, i32 noundef %13)
  %18 = call i32 @_Z14as_XMMRegisteri(i32 noundef %17)
  %19 = getelementptr inbounds %class.XMMRegister, ptr %5, i32 0, i32 0
  store i32 %18, ptr %19, align 4
  %20 = getelementptr inbounds %class.XMMRegister, ptr %5, i32 0, i32 0
  %21 = load i32, ptr %20, align 4
  ret i32 %21
}

; Function Attrs: mustprogress nounwind uwtable
define linkonce_odr hidden i32 @_ZNK8MachOper11as_RegisterEP13PhaseRegAllocPK4Nodei(ptr noundef nonnull align 8 dereferenceable(8) %0, ptr noundef %1, ptr noundef %2, i32 noundef %3) #1 comdat align 2 {
  %5 = alloca %class.Register, align 4
  %6 = alloca ptr, align 8
  %7 = alloca ptr, align 8
  %8 = alloca ptr, align 8
  %9 = alloca i32, align 4
  store ptr %0, ptr %6, align 8
  store ptr %1, ptr %7, align 8
  store ptr %2, ptr %8, align 8
  store i32 %3, ptr %9, align 4
  %10 = load ptr, ptr %6, align 8
  %11 = load ptr, ptr %7, align 8
  %12 = load ptr, ptr %8, align 8
  %13 = load i32, ptr %9, align 4
  %14 = load ptr, ptr %10, align 8
  %15 = getelementptr inbounds ptr, ptr %14, i64 5
  %16 = load ptr, ptr %15, align 8
  %17 = call noundef i32 %16(ptr noundef nonnull align 8 dereferenceable(8) %10, ptr noundef %11, ptr noundef %12, i32 noundef %13)
  %18 = call i32 @_Z11as_Registeri(i32 noundef %17)
  %19 = getelementptr inbounds %class.Register, ptr %5, i32 0, i32 0
  store i32 %18, ptr %19, align 4
  %20 = getelementptr inbounds %class.Register, ptr %5, i32 0, i32 0
  %21 = load i32, ptr %20, align 4
  ret i32 %21
}

; Function Attrs: mustprogress nounwind uwtable
define linkonce_odr hidden i32 @_ZNK8MachOper11as_RegisterEP13PhaseRegAllocPK4Node(ptr noundef nonnull align 8 dereferenceable(8) %0, ptr noundef %1, ptr noundef %2) #1 comdat align 2 {
  %4 = alloca %class.Register, align 4
  %5 = alloca ptr, align 8
  %6 = alloca ptr, align 8
  %7 = alloca ptr, align 8
  store ptr %0, ptr %5, align 8
  store ptr %1, ptr %6, align 8
  store ptr %2, ptr %7, align 8
  %8 = load ptr, ptr %5, align 8
  %9 = load ptr, ptr %6, align 8
  %10 = load ptr, ptr %7, align 8
  %11 = load ptr, ptr %8, align 8
  %12 = getelementptr inbounds ptr, ptr %11, i64 4
  %13 = load ptr, ptr %12, align 8
  %14 = call noundef i32 %13(ptr noundef nonnull align 8 dereferenceable(8) %8, ptr noundef %9, ptr noundef %10)
  %15 = call i32 @_Z11as_Registeri(i32 noundef %14)
  %16 = getelementptr inbounds %class.Register, ptr %4, i32 0, i32 0
  store i32 %15, ptr %16, align 4
  %17 = getelementptr inbounds %class.Register, ptr %4, i32 0, i32 0
  %18 = load i32, ptr %17, align 4
  ret i32 %18
}

; Function Attrs: mustprogress nounwind uwtable
define linkonce_odr hidden noundef ptr @_ZNK14reductionBNode10opnd_arrayEj(ptr noundef nonnull align 8 dereferenceable(112) %0, i32 noundef %1) #1 comdat align 2 {
  %3 = alloca ptr, align 8
  %4 = alloca i32, align 4
  store ptr %0, ptr %3, align 8
  store i32 %1, ptr %4, align 4
  %5 = load ptr, ptr %3, align 8
  %6 = getelementptr inbounds %class.reductionBNode, ptr %5, i32 0, i32 1
  %7 = load i32, ptr %4, align 4
  %8 = zext i32 %7 to i64
  %9 = getelementptr inbounds [5 x ptr], ptr %6, i64 0, i64 %8
  %10 = load ptr, ptr %9, align 8
  ret ptr %10
}

; Function Attrs: mustprogress nounwind uwtable
define hidden void @_ZNK14reductionBNode4emitEP17C2_MacroAssemblerP13PhaseRegAlloc(ptr noundef nonnull align 8 dereferenceable(112) %0, ptr noundef %1, ptr noundef %2) unnamed_addr #1 align 2 {
  %4 = alloca ptr, align 8
  %5 = alloca ptr, align 8
  %6 = alloca ptr, align 8
  %7 = alloca i32, align 4
  %8 = alloca i32, align 4
  %9 = alloca i32, align 4
  %10 = alloca i32, align 4
  %11 = alloca i32, align 4
  %12 = alloca i32, align 4
  %13 = alloca i32, align 4
  %14 = alloca %class.Register, align 4
  %15 = alloca %class.Register, align 4
  %16 = alloca %class.XMMRegister, align 4
  %17 = alloca %class.XMMRegister, align 4
  %18 = alloca %class.XMMRegister, align 4
  store ptr %0, ptr %4, align 8
  store ptr %1, ptr %5, align 8
  store ptr %2, ptr %6, align 8
  %19 = load ptr, ptr %4, align 8
  store i32 1, ptr %7, align 4
  store i32 1, ptr %8, align 4
  %20 = load i32, ptr %8, align 4
  %21 = call noundef ptr @_ZNK14reductionBNode10opnd_arrayEj(ptr noundef nonnull align 8 dereferenceable(112) %19, i32 noundef 1)
  %22 = load ptr, ptr %21, align 8
  %23 = getelementptr inbounds ptr, ptr %22, i64 1
  %24 = load ptr, ptr %23, align 8
  %25 = call noundef i32 %24(ptr noundef nonnull align 8 dereferenceable(8) %21)
  %26 = add i32 %20, %25
  store i32 %26, ptr %9, align 4
  %27 = load i32, ptr %9, align 4
  %28 = call noundef ptr @_ZNK14reductionBNode10opnd_arrayEj(ptr noundef nonnull align 8 dereferenceable(112) %19, i32 noundef 2)
  %29 = load ptr, ptr %28, align 8
  %30 = getelementptr inbounds ptr, ptr %29, i64 1
  %31 = load ptr, ptr %30, align 8
  %32 = call noundef i32 %31(ptr noundef nonnull align 8 dereferenceable(8) %28)
  %33 = add i32 %27, %32
  store i32 %33, ptr %10, align 4
  %34 = load i32, ptr %10, align 4
  %35 = call noundef ptr @_ZNK14reductionBNode10opnd_arrayEj(ptr noundef nonnull align 8 dereferenceable(112) %19, i32 noundef 3)
  %36 = load ptr, ptr %35, align 8
  %37 = getelementptr inbounds ptr, ptr %36, i64 1
  %38 = load ptr, ptr %37, align 8
  %39 = call noundef i32 %38(ptr noundef nonnull align 8 dereferenceable(8) %35)
  %40 = add i32 %34, %39
  store i32 %40, ptr %11, align 4
  %41 = load ptr, ptr %19, align 8
  %42 = getelementptr inbounds ptr, ptr %41, i64 41
  %43 = load ptr, ptr %42, align 8
  %44 = call noundef i32 %43(ptr noundef nonnull align 8 dereferenceable(112) %19)
  store i32 %44, ptr %12, align 4
  %45 = call noundef ptr @_ZNK14reductionBNode10opnd_arrayEj(ptr noundef nonnull align 8 dereferenceable(112) %19, i32 noundef 2)
  %46 = call noundef i32 @_ZN7Matcher13vector_lengthEPK8MachNodePK8MachOper(ptr noundef %19, ptr noundef %45)
  store i32 %46, ptr %13, align 4
  %47 = load ptr, ptr %5, align 8
  %48 = load i32, ptr %12, align 4
  %49 = load i32, ptr %13, align 4
  %50 = call noundef ptr @_ZNK14reductionBNode10opnd_arrayEj(ptr noundef nonnull align 8 dereferenceable(112) %19, i32 noundef 0)
  %51 = load ptr, ptr %6, align 8
  %52 = call i32 @_ZNK8MachOper11as_RegisterEP13PhaseRegAllocPK4Node(ptr noundef nonnull align 8 dereferenceable(8) %50, ptr noundef %51, ptr noundef %19)
  %53 = getelementptr inbounds %class.Register, ptr %14, i32 0, i32 0
  store i32 %52, ptr %53, align 4
  %54 = call noundef ptr @_ZNK14reductionBNode10opnd_arrayEj(ptr noundef nonnull align 8 dereferenceable(112) %19, i32 noundef 1)
  %55 = load ptr, ptr %6, align 8
  %56 = load i32, ptr %8, align 4
  %57 = call i32 @_ZNK8MachOper11as_RegisterEP13PhaseRegAllocPK4Nodei(ptr noundef nonnull align 8 dereferenceable(8) %54, ptr noundef %55, ptr noundef %19, i32 noundef %56)
  %58 = getelementptr inbounds %class.Register, ptr %15, i32 0, i32 0
  store i32 %57, ptr %58, align 4
  %59 = call noundef ptr @_ZNK14reductionBNode10opnd_arrayEj(ptr noundef nonnull align 8 dereferenceable(112) %19, i32 noundef 2)
  %60 = load ptr, ptr %6, align 8
  %61 = load i32, ptr %9, align 4
  %62 = call i32 @_ZNK8MachOper14as_XMMRegisterEP13PhaseRegAllocPK4Nodei(ptr noundef nonnull align 8 dereferenceable(8) %59, ptr noundef %60, ptr noundef %19, i32 noundef %61)
  %63 = getelementptr inbounds %class.XMMRegister, ptr %16, i32 0, i32 0
  store i32 %62, ptr %63, align 4
  %64 = call noundef ptr @_ZNK14reductionBNode10opnd_arrayEj(ptr noundef nonnull align 8 dereferenceable(112) %19, i32 noundef 3)
  %65 = load ptr, ptr %6, align 8
  %66 = load i32, ptr %10, align 4
  %67 = call i32 @_ZNK8MachOper14as_XMMRegisterEP13PhaseRegAllocPK4Nodei(ptr noundef nonnull align 8 dereferenceable(8) %64, ptr noundef %65, ptr noundef %19, i32 noundef %66)
  %68 = getelementptr inbounds %class.XMMRegister, ptr %17, i32 0, i32 0
  store i32 %67, ptr %68, align 4
  %69 = call noundef ptr @_ZNK14reductionBNode10opnd_arrayEj(ptr noundef nonnull align 8 dereferenceable(112) %19, i32 noundef 4)
  %70 = load ptr, ptr %6, align 8
  %71 = load i32, ptr %11, align 4
  %72 = call i32 @_ZNK8MachOper14as_XMMRegisterEP13PhaseRegAllocPK4Nodei(ptr noundef nonnull align 8 dereferenceable(8) %69, ptr noundef %70, ptr noundef %19, i32 noundef %71)
  %73 = getelementptr inbounds %class.XMMRegister, ptr %18, i32 0, i32 0
  store i32 %72, ptr %73, align 4
  %74 = getelementptr inbounds %class.Register, ptr %14, i32 0, i32 0
  %75 = load i32, ptr %74, align 4
  %76 = getelementptr inbounds %class.Register, ptr %15, i32 0, i32 0
  %77 = load i32, ptr %76, align 4
  %78 = getelementptr inbounds %class.XMMRegister, ptr %16, i32 0, i32 0
  %79 = load i32, ptr %78, align 4
  %80 = getelementptr inbounds %class.XMMRegister, ptr %17, i32 0, i32 0
  %81 = load i32, ptr %80, align 4
  %82 = getelementptr inbounds %class.XMMRegister, ptr %18, i32 0, i32 0
  %83 = load i32, ptr %82, align 4
  call void @_ZN17C2_MacroAssembler7reduceBEii8RegisterS0_11XMMRegisterS1_S1_(ptr noundef nonnull align 8 dereferenceable(40) %47, i32 noundef %48, i32 noundef %49, i32 %75, i32 %77, i32 %79, i32 %81, i32 %83)
  ret void
}